target datalayout = "e-m:e-p270:32:32-p271:32:32-p272:64:64-i64:64-i128:128-f80:128-n8:16:32:64-S128"
target triple = "x86_64-pc-linux-gnu"

%"struct.arrow::compute::FunctionDoc" = type <{ %"class.std::__cxx11::basic_string", %"class.std::__cxx11::basic_string", %"class.std::vector", %"class.std::__cxx11::basic_string", i8, [7 x i8] }>
%"class.std::vector" = type { %"struct.std::_Vector_base" }
%"struct.std::_Vector_base" = type { %"struct.std::_Vector_base<std::__cxx11::basic_string<char>, std::allocator<std::__cxx11::basic_string<char>>>::_Vector_impl" }
%"struct.std::_Vector_base<std::__cxx11::basic_string<char>, std::allocator<std::__cxx11::basic_string<char>>>::_Vector_impl" = type { %"struct.std::_Vector_base<std::__cxx11::basic_string<char>, std::allocator<std::__cxx11::basic_string<char>>>::_Vector_impl_data" }
%"struct.std::_Vector_base<std::__cxx11::basic_string<char>, std::allocator<std::__cxx11::basic_string<char>>>::_Vector_impl_data" = type { ptr, ptr, ptr }
%"class.std::__cxx11::basic_string" = type { %"struct.std::__cxx11::basic_string<char>::_Alloc_hider", i64, %union.anon }
%"struct.std::__cxx11::basic_string<char>::_Alloc_hider" = type { ptr }
%union.anon = type { i64, [8 x i8] }
%"class.arrow::Status" = type { ptr }
%"struct.arrow::compute::Arity" = type <{ i32, i8, [3 x i8] }>
%"class.arrow::compute::Function" = type { ptr, %"class.std::__cxx11::basic_string", i32, %"struct.arrow::compute::Arity", [4 x i8], %"struct.arrow::compute::FunctionDoc", ptr }

@.str.2 = private unnamed_addr constant [11 x i8] c"Function '\00", align 1
@.str.11 = private unnamed_addr constant [19 x i8] c"VarArgs function '\00", align 1
@.str.12 = private unnamed_addr constant [18 x i8] c"' needs at least \00", align 1
@.str.13 = private unnamed_addr constant [21 x i8] c" arguments but only \00", align 1
@.str.14 = private unnamed_addr constant [8 x i8] c" passed\00", align 1
@.str.15 = private unnamed_addr constant [11 x i8] c"' accepts \00", align 1
@.str.16 = private unnamed_addr constant [16 x i8] c" arguments but \00", align 1

; Function Attrs: mustprogress nounwind uwtable
define linkonce_odr void @_ZN5arrow6StatusC2Ev(ptr noundef nonnull align 8 dereferenceable(8) %0) unnamed_addr #0 comdat align 2 {
  %2 = alloca ptr, align 8
  store ptr %0, ptr %2, align 8, !tbaa !65
  %3 = load ptr, ptr %2, align 8
  %4 = getelementptr inbounds nuw %"class.arrow::Status", ptr %3, i32 0, i32 0
  store ptr null, ptr %4, align 8, !tbaa !67
  ret void
}

; Function Attrs: mustprogress nounwind uwtable
define linkonce_odr void @_ZN5arrow6Status2OKEv(ptr dead_on_unwind noalias writable sret(%"class.arrow::Status") align 8 %0) #0 comdat align 2 {
  %2 = alloca ptr, align 8
  store ptr %0, ptr %2, align 8
  call void @_ZN5arrow6StatusC2Ev(ptr noundef nonnull align 8 dereferenceable(8) %0) #9
  ret void
}

; Function Attrs: mustprogress uwtable
define linkonce_odr void @_ZN5arrow6Status7InvalidIJRA11_KcRKNSt7__cxx1112basic_stringIcSt11char_traitsIcESaIcEEES4_RKiRA16_S2_RiRA8_S2_EEES0_DpOT_(ptr dead_on_unwind noalias writable sret(%"class.arrow::Status") align 8 %0, ptr noundef nonnull align 1 dereferenceable(11) %1, ptr noundef nonnull align 8 dereferenceable(32) %2, ptr noundef nonnull align 1 dereferenceable(11) %3, ptr noundef nonnull align 4 dereferenceable(4) %4, ptr noundef nonnull align 1 dereferenceable(16) %5, ptr noundef nonnull align 4 dereferenceable(4) %6, ptr noundef nonnull align 1 dereferenceable(8) %7) #1 comdat align 2 {
  %9 = alloca ptr, align 8
  %10 = alloca ptr, align 8
  %11 = alloca ptr, align 8
  %12 = alloca ptr, align 8
  %13 = alloca ptr, align 8
  %14 = alloca ptr, align 8
  %15 = alloca ptr, align 8
  %16 = alloca ptr, align 8
  store ptr %0, ptr %9, align 8
  store ptr %1, ptr %10, align 8, !tbaa !59
  store ptr %2, ptr %11, align 8, !tbaa !89
  store ptr %3, ptr %12, align 8, !tbaa !59
  store ptr %4, ptr %13, align 8, !tbaa !308
  store ptr %5, ptr %14, align 8, !tbaa !59
  store ptr %6, ptr %15, align 8, !tbaa !308
  store ptr %7, ptr %16, align 8, !tbaa !59
  %17 = load ptr, ptr %10, align 8, !tbaa !59
  %18 = load ptr, ptr %11, align 8, !tbaa !89
  %19 = load ptr, ptr %12, align 8, !tbaa !59
  %20 = load ptr, ptr %13, align 8, !tbaa !308
  %21 = load ptr, ptr %14, align 8, !tbaa !59
  %22 = load ptr, ptr %15, align 8, !tbaa !308
  %23 = load ptr, ptr %16, align 8, !tbaa !59
  call void @_ZN5arrow6Status8FromArgsIJRA11_KcRKNSt7__cxx1112basic_stringIcSt11char_traitsIcESaIcEEES4_RKiRA16_S2_RiRA8_S2_EEES0_NS_10StatusCodeEDpOT_(ptr dead_on_unwind writable sret(%"class.arrow::Status") align 8 %0, i8 noundef signext 4, ptr noundef nonnull align 1 dereferenceable(11) %17, ptr noundef nonnull align 8 dereferenceable(32) %18, ptr noundef nonnull align 1 dereferenceable(11) %19, ptr noundef nonnull align 4 dereferenceable(4) %20, ptr noundef nonnull align 1 dereferenceable(16) %21, ptr noundef nonnull align 4 dereferenceable(4) %22, ptr noundef nonnull align 1 dereferenceable(8) %23)
  ret void
}

; Function Attrs: mustprogress uwtable
define linkonce_odr void @_ZN5arrow6Status7InvalidIJRA19_KcRKNSt7__cxx1112basic_stringIcSt11char_traitsIcESaIcEEERA18_S2_RKiRA21_S2_RiRA8_S2_EEES0_DpOT_(ptr dead_on_unwind noalias writable sret(%"class.arrow::Status") align 8 %0, ptr noundef nonnull align 1 dereferenceable(19) %1, ptr noundef nonnull align 8 dereferenceable(32) %2, ptr noundef nonnull align 1 dereferenceable(18) %3, ptr noundef nonnull align 4 dereferenceable(4) %4, ptr noundef nonnull align 1 dereferenceable(21) %5, ptr noundef nonnull align 4 dereferenceable(4) %6, ptr noundef nonnull align 1 dereferenceable(8) %7) #1 comdat align 2 {
  %9 = alloca ptr, align 8
  %10 = alloca ptr, align 8
  %11 = alloca ptr, align 8
  %12 = alloca ptr, align 8
  %13 = alloca ptr, align 8
  %14 = alloca ptr, align 8
  %15 = alloca ptr, align 8
  %16 = alloca ptr, align 8
  store ptr %0, ptr %9, align 8
  store ptr %1, ptr %10, align 8, !tbaa !59
  store ptr %2, ptr %11, align 8, !tbaa !89
  store ptr %3, ptr %12, align 8, !tbaa !59
  store ptr %4, ptr %13, align 8, !tbaa !308
  store ptr %5, ptr %14, align 8, !tbaa !59
  store ptr %6, ptr %15, align 8, !tbaa !308
  store ptr %7, ptr %16, align 8, !tbaa !59
  %17 = load ptr, ptr %10, align 8, !tbaa !59
  %18 = load ptr, ptr %11, align 8, !tbaa !89
  %19 = load ptr, ptr %12, align 8, !tbaa !59
  %20 = load ptr, ptr %13, align 8, !tbaa !308
  %21 = load ptr, ptr %14, align 8, !tbaa !59
  %22 = load ptr, ptr %15, align 8, !tbaa !308
  %23 = load ptr, ptr %16, align 8, !tbaa !59
  call void @_ZN5arrow6Status8FromArgsIJRA19_KcRKNSt7__cxx1112basic_stringIcSt11char_traitsIcESaIcEEERA18_S2_RKiRA21_S2_RiRA8_S2_EEES0_NS_10StatusCodeEDpOT_(ptr dead_on_unwind writable sret(%"class.arrow::Status") align 8 %0, i8 noundef signext 4, ptr noundef nonnull align 1 dereferenceable(19) %17, ptr noundef nonnull align 8 dereferenceable(32) %18, ptr noundef nonnull align 1 dereferenceable(18) %19, ptr noundef nonnull align 4 dereferenceable(4) %20, ptr noundef nonnull align 1 dereferenceable(21) %21, ptr noundef nonnull align 4 dereferenceable(4) %22, ptr noundef nonnull align 1 dereferenceable(8) %23)
  ret void
}

; Function Attrs: mustprogress nounwind uwtable
define linkonce_odr noundef nonnull align 8 dereferenceable(32) ptr @_ZNK5arrow7compute8Function4nameB5cxx11Ev(ptr noundef nonnull align 8 dereferenceable(192) %0) #0 comdat align 2 {
  %2 = alloca ptr, align 8
  store ptr %0, ptr %2, align 8, !tbaa !97
  %3 = load ptr, ptr %2, align 8
  %4 = getelementptr inbounds nuw %"class.arrow::compute::Function", ptr %3, i32 0, i32 1
  ret ptr %4
}

; Function Attrs: mustprogress nounwind uwtable
define linkonce_odr noundef nonnull align 4 dereferenceable(5) ptr @_ZNK5arrow7compute8Function5arityEv(ptr noundef nonnull align 8 dereferenceable(192) %0) #0 comdat align 2 {
  %2 = alloca ptr, align 8
  store ptr %0, ptr %2, align 8, !tbaa !97
  %3 = load ptr, ptr %2, align 8
  %4 = getelementptr inbounds nuw %"class.arrow::compute::Function", ptr %3, i32 0, i32 3
  ret ptr %4
}

; Function Attrs: mustprogress uwtable
define internal void @_ZN5arrow7computeL14CheckArityImplERKNS0_8FunctionEi(ptr dead_on_unwind noalias writable sret(%"class.arrow::Status") align 8 %0, ptr noundef nonnull align 8 dereferenceable(192) %1, i32 noundef %2) #1 {
  %4 = alloca ptr, align 8
  %5 = alloca ptr, align 8
  %6 = alloca i32, align 4
  store ptr %0, ptr %4, align 8
  store ptr %1, ptr %5, align 8, !tbaa !97
  store i32 %2, ptr %6, align 4, !tbaa !8
  %7 = load ptr, ptr %5, align 8, !tbaa !97
  %8 = call noundef nonnull align 4 dereferenceable(5) ptr @_ZNK5arrow7compute8Function5arityEv(ptr noundef nonnull align 8 dereferenceable(192) %7)
  %9 = getelementptr inbounds nuw %"struct.arrow::compute::Arity", ptr %8, i32 0, i32 1
  %10 = load i8, ptr %9, align 4, !tbaa !99, !range !81, !noundef !82
  %11 = trunc i8 %10 to i1
  br i1 %11, label %12, label %25

12:                                               ; preds = %3
  %13 = load i32, ptr %6, align 4, !tbaa !8
  %14 = load ptr, ptr %5, align 8, !tbaa !97
  %15 = call noundef nonnull align 4 dereferenceable(5) ptr @_ZNK5arrow7compute8Function5arityEv(ptr noundef nonnull align 8 dereferenceable(192) %14)
  %16 = getelementptr inbounds nuw %"struct.arrow::compute::Arity", ptr %15, i32 0, i32 0
  %17 = load i32, ptr %16, align 4, !tbaa !101
  %18 = icmp slt i32 %13, %17
  br i1 %18, label %19, label %25

19:                                               ; preds = %12
  %20 = load ptr, ptr %5, align 8, !tbaa !97
  %21 = call noundef nonnull align 8 dereferenceable(32) ptr @_ZNK5arrow7compute8Function4nameB5cxx11Ev(ptr noundef nonnull align 8 dereferenceable(192) %20)
  %22 = load ptr, ptr %5, align 8, !tbaa !97
  %23 = call noundef nonnull align 4 dereferenceable(5) ptr @_ZNK5arrow7compute8Function5arityEv(ptr noundef nonnull align 8 dereferenceable(192) %22)
  %24 = getelementptr inbounds nuw %"struct.arrow::compute::Arity", ptr %23, i32 0, i32 0
  call void @_ZN5arrow6Status7InvalidIJRA19_KcRKNSt7__cxx1112basic_stringIcSt11char_traitsIcESaIcEEERA18_S2_RKiRA21_S2_RiRA8_S2_EEES0_DpOT_(ptr dead_on_unwind writable sret(%"class.arrow::Status") align 8 %0, ptr noundef nonnull align 1 dereferenceable(19) @.str.11, ptr noundef nonnull align 8 dereferenceable(32) %21, ptr noundef nonnull align 1 dereferenceable(18) @.str.12, ptr noundef nonnull align 4 dereferenceable(4) %24, ptr noundef nonnull align 1 dereferenceable(21) @.str.13, ptr noundef nonnull align 4 dereferenceable(4) %6, ptr noundef nonnull align 1 dereferenceable(8) @.str.14)
  br label %45

25:                                               ; preds = %12, %3
  %26 = load ptr, ptr %5, align 8, !tbaa !97
  %27 = call noundef nonnull align 4 dereferenceable(5) ptr @_ZNK5arrow7compute8Function5arityEv(ptr noundef nonnull align 8 dereferenceable(192) %26)
  %28 = getelementptr inbounds nuw %"struct.arrow::compute::Arity", ptr %27, i32 0, i32 1
  %29 = load i8, ptr %28, align 4, !tbaa !99, !range !81, !noundef !82
  %30 = trunc i8 %29 to i1
  br i1 %30, label %44, label %31

31:                                               ; preds = %25
  %32 = load i32, ptr %6, align 4, !tbaa !8
  %33 = load ptr, ptr %5, align 8, !tbaa !97
  %34 = call noundef nonnull align 4 dereferenceable(5) ptr @_ZNK5arrow7compute8Function5arityEv(ptr noundef nonnull align 8 dereferenceable(192) %33)
  %35 = getelementptr inbounds nuw %"struct.arrow::compute::Arity", ptr %34, i32 0, i32 0
  %36 = load i32, ptr %35, align 4, !tbaa !101
  %37 = icmp ne i32 %32, %36
  br i1 %37, label %38, label %44

38:                                               ; preds = %31
  %39 = load ptr, ptr %5, align 8, !tbaa !97
  %40 = call noundef nonnull align 8 dereferenceable(32) ptr @_ZNK5arrow7compute8Function4nameB5cxx11Ev(ptr noundef nonnull align 8 dereferenceable(192) %39)
  %41 = load ptr, ptr %5, align 8, !tbaa !97
  %42 = call noundef nonnull align 4 dereferenceable(5) ptr @_ZNK5arrow7compute8Function5arityEv(ptr noundef nonnull align 8 dereferenceable(192) %41)
  %43 = getelementptr inbounds nuw %"struct.arrow::compute::Arity", ptr %42, i32 0, i32 0
  call void @_ZN5arrow6Status7InvalidIJRA11_KcRKNSt7__cxx1112basic_stringIcSt11char_traitsIcESaIcEEES4_RKiRA16_S2_RiRA8_S2_EEES0_DpOT_(ptr dead_on_unwind writable sret(%"class.arrow::Status") align 8 %0, ptr noundef nonnull align 1 dereferenceable(11) @.str.2, ptr noundef nonnull align 8 dereferenceable(32) %40, ptr noundef nonnull align 1 dereferenceable(11) @.str.15, ptr noundef nonnull align 4 dereferenceable(4) %43, ptr noundef nonnull align 1 dereferenceable(16) @.str.16, ptr noundef nonnull align 4 dereferenceable(4) %6, ptr noundef nonnull align 1 dereferenceable(8) @.str.14)
  br label %45

44:                                               ; preds = %31, %25
  call void @_ZN5arrow6Status2OKEv(ptr dead_on_unwind writable sret(%"class.arrow::Status") align 8 %0)
  br label %45

45:                                               ; preds = %44, %38, %19
  ret void
}

; Function Attrs: mustprogress uwtable
define void @_ZNK5arrow7compute8Function10CheckArityEm(ptr dead_on_unwind noalias writable sret(%"class.arrow::Status") align 8 %0, ptr noundef nonnull align 8 dereferenceable(192) %1, i64 noundef %2) #1 align 2 {
  %4 = alloca ptr, align 8
  %5 = alloca ptr, align 8
  %6 = alloca i64, align 8
  store ptr %0, ptr %4, align 8
  store ptr %1, ptr %5, align 8, !tbaa !97
  store i64 %2, ptr %6, align 8, !tbaa !43
  %7 = load ptr, ptr %5, align 8
  %8 = load i64, ptr %6, align 8, !tbaa !43
  %9 = trunc i64 %8 to i32
  call void @_ZN5arrow7computeL14CheckArityImplERKNS0_8FunctionEi(ptr dead_on_unwind writable sret(%"class.arrow::Status") align 8 %0, ptr noundef nonnull align 8 dereferenceable(192) %7, i32 noundef %9)
  ret void
}