; Function Attrs: mustprogress uwtable
define void @_ZNK5arrow7compute8Function10CheckArityEm(ptr dead_on_unwind noalias writable sret(%"class.arrow::Status") align 8 %0, ptr noundef nonnull align 8 dereferenceable(192) %1, i64 noundef %2) local_unnamed_addr #1 align 2 {
  %4 = alloca i32, align 4
  %5 = trunc i64 %2 to i32
  tail call void @llvm.experimental.noalias.scope.decl(metadata !82)
  call void @llvm.lifetime.start.p0(i64 4, ptr nonnull %4)
  store i32 %5, ptr %4, align 4, !tbaa !85, !noalias !82
  %6 = getelementptr inbounds nuw i8, ptr %1, i64 44
  %7 = getelementptr inbounds nuw i8, ptr %1, i64 48
  %8 = load i8, ptr %7, align 8, !tbaa !86, !range !60, !noalias !82, !noundef !61
  %9 = trunc nuw i8 %8 to i1
  %10 = load i32, ptr %6, align 4, !tbaa !88, !noalias !82
  br i1 %9, label %11, label %15

11:                                               ; preds = %3
  %12 = icmp sgt i32 %10, %5
  br i1 %12, label %13, label %.thread.i

13:                                               ; preds = %11
  %14 = getelementptr inbounds nuw i8, ptr %1, i64 8
  call void @_ZN5arrow6Status8FromArgsIJRA19_KcRKNSt7__cxx1112basic_stringIcSt11char_traitsIcESaIcEEERA18_S2_RKiRA21_S2_RiRA8_S2_EEES0_NS_10StatusCodeEDpOT_(ptr dead_on_unwind writable sret(%"class.arrow::Status") align 8 %0, i8 noundef signext 4, ptr noundef nonnull align 1 dereferenceable(19) @.str.11, ptr noundef nonnull align 8 dereferenceable(32) %14, ptr noundef nonnull align 1 dereferenceable(18) @.str.12, ptr noundef nonnull align 4 dereferenceable(4) %6, ptr noundef nonnull align 1 dereferenceable(21) @.str.13, ptr noundef nonnull align 4 dereferenceable(4) %4, ptr noundef nonnull align 1 dereferenceable(8) @.str.14)
  br label %_ZN5arrow7computeL14CheckArityImplERKNS0_8FunctionEi.exit

15:                                               ; preds = %3
  %.not.i = icmp eq i32 %10, %5
  br i1 %.not.i, label %.thread.i, label %16

16:                                               ; preds = %15
  %17 = getelementptr inbounds nuw i8, ptr %1, i64 8
  call void @_ZN5arrow6Status8FromArgsIJRA11_KcRKNSt7__cxx1112basic_stringIcSt11char_traitsIcESaIcEEES4_RKiRA16_S2_RiRA8_S2_EEES0_NS_10StatusCodeEDpOT_(ptr dead_on_unwind writable sret(%"class.arrow::Status") align 8 %0, i8 noundef signext 4, ptr noundef nonnull align 1 dereferenceable(11) @.str.2, ptr noundef nonnull align 8 dereferenceable(32) %17, ptr noundef nonnull align 1 dereferenceable(11) @.str.15, ptr noundef nonnull align 4 dereferenceable(4) %6, ptr noundef nonnull align 1 dereferenceable(16) @.str.16, ptr noundef nonnull align 4 dereferenceable(4) %4, ptr noundef nonnull align 1 dereferenceable(8) @.str.14)
  br label %_ZN5arrow7computeL14CheckArityImplERKNS0_8FunctionEi.exit

.thread.i:                                        ; preds = %15, %11
  store ptr null, ptr %0, align 8, !tbaa !47, !alias.scope !89
  br label %_ZN5arrow7computeL14CheckArityImplERKNS0_8FunctionEi.exit

_ZN5arrow7computeL14CheckArityImplERKNS0_8FunctionEi.exit: ; preds = %13, %16, %.thread.i
  call void @llvm.lifetime.end.p0(i64 4, ptr nonnull %4)
  ret void
}